; Function Attrs: nounwind uwtable
define ptr @l_Lean_Linter_omit___elambda__1___lambda__2(ptr noundef %0, ptr readnone captures(none) %1, ptr noundef %2, ptr noundef %3, ptr noundef %4) local_unnamed_addr #0 {
  %6 = load ptr, ptr @l_Lean_Linter_omit___elambda__1___lambda__2___closed__1, align 8, !tbaa !4
  %7 = tail call ptr @l_Lean_Syntax_findAux(ptr noundef %6, ptr noundef %0) #3
  %8 = ptrtoint ptr %7 to i64
  %9 = and i64 %8, 1
  %.not.i27 = icmp eq i64 %9, 0
  br i1 %.not.i27, label %13, label %10

10:                                               ; preds = %5
  %11 = lshr i64 %8, 1
  %12 = trunc i64 %11 to i32
  br label %lean_obj_tag.exit

13:                                               ; preds = %5
  %14 = getelementptr i8, ptr %7, i64 4
  %.val.i = load i32, ptr %14, align 4
  %15 = lshr i32 %.val.i, 24
  br label %lean_obj_tag.exit

lean_obj_tag.exit:                                ; preds = %10, %13
  %.0.i = phi i32 [ %12, %10 ], [ %15, %13 ]
  %16 = icmp eq i32 %.0.i, 0
  br i1 %16, label %17, label %33

17:                                               ; preds = %lean_obj_tag.exit
  %18 = ptrtoint ptr %2 to i64
  %19 = and i64 %18, 1
  %.not31 = icmp eq i64 %19, 0
  br i1 %.not31, label %20, label %lean_dec.exit22

20:                                               ; preds = %17
  %21 = load i32, ptr %2, align 4, !tbaa !8
  %22 = icmp sgt i32 %21, 1
  br i1 %22, label %23, label %25, !prof !11

23:                                               ; preds = %20
  %24 = add nsw i32 %21, -1
  store i32 %24, ptr %2, align 4, !tbaa !8
  br label %lean_dec.exit22

25:                                               ; preds = %20
  %.not.i = icmp eq i32 %21, 0
  br i1 %.not.i, label %lean_dec.exit22, label %26

26:                                               ; preds = %25
  tail call void @lean_dec_ref_cold(ptr noundef nonnull %2) #3
  br label %lean_dec.exit22

lean_dec.exit22:                                  ; preds = %26, %25, %23, %17
  tail call void @lean_inc_heartbeat() #3
  %27 = tail call noalias ptr @mi_malloc_small(i64 noundef 24) #3
  %28 = icmp eq ptr %27, null
  br i1 %28, label %29, label %lean_alloc_ctor.exit

29:                                               ; preds = %lean_dec.exit22
  tail call void @lean_internal_panic_out_of_memory() #4
  unreachable

lean_alloc_ctor.exit:                             ; preds = %lean_dec.exit22
  %30 = getelementptr inbounds nuw i8, ptr %27, i64 4
  store i32 1, ptr %27, align 4, !tbaa !8
  store i32 131096, ptr %30, align 4
  %31 = getelementptr inbounds nuw i8, ptr %27, i64 8
  store ptr inttoptr (i64 1 to ptr), ptr %31, align 8, !tbaa !4
  %32 = getelementptr inbounds nuw i8, ptr %27, i64 16
  store ptr %4, ptr %32, align 8, !tbaa !4
  br label %lean_dec.exit

33:                                               ; preds = %lean_obj_tag.exit
  %34 = getelementptr inbounds nuw i8, ptr %7, i64 8
  %35 = load ptr, ptr %34, align 8, !tbaa !4
  %36 = ptrtoint ptr %35 to i64
  %37 = and i64 %36, 1
  %.not = icmp eq i64 %37, 0
  br i1 %.not, label %38, label %lean_inc.exit

38:                                               ; preds = %33
  %.val.i28 = load i32, ptr %35, align 4, !tbaa !8
  %39 = icmp sgt i32 %.val.i28, 0
  br i1 %39, label %40, label %42, !prof !11

40:                                               ; preds = %38
  %41 = add nuw i32 %.val.i28, 1
  store i32 %41, ptr %35, align 4, !tbaa !8
  br label %lean_inc.exit

42:                                               ; preds = %38
  %.not.i29 = icmp eq i32 %.val.i28, 0
  br i1 %.not.i29, label %lean_inc.exit, label %43

43:                                               ; preds = %42
  tail call void @lean_inc_ref_cold(ptr noundef nonnull %35) #3
  br label %lean_inc.exit

lean_inc.exit:                                    ; preds = %43, %42, %40, %33
  br i1 %.not.i27, label %44, label %lean_dec.exit21

44:                                               ; preds = %lean_inc.exit
  %45 = load i32, ptr %7, align 4, !tbaa !8
  %46 = icmp sgt i32 %45, 1
  br i1 %46, label %47, label %49, !prof !11

47:                                               ; preds = %44
  %48 = add nsw i32 %45, -1
  store i32 %48, ptr %7, align 4, !tbaa !8
  br label %lean_dec.exit21

49:                                               ; preds = %44
  %.not.i23 = icmp eq i32 %45, 0
  br i1 %.not.i23, label %lean_dec.exit21, label %50

50:                                               ; preds = %49
  tail call void @lean_dec_ref_cold(ptr noundef nonnull %7) #3
  br label %lean_dec.exit21

lean_dec.exit21:                                  ; preds = %50, %49, %47, %lean_inc.exit
  %51 = load ptr, ptr @l_Lean_Linter_omit___elambda__1___lambda__2___closed__4, align 8, !tbaa !4
  %52 = load ptr, ptr @l_Lean_Linter_omit___elambda__1___lambda__2___closed__3, align 8, !tbaa !4
  %53 = tail call ptr @l_Lean_Linter_logLint___at_Lean_Linter_omit___elambda__1___spec__1(ptr noundef %51, ptr noundef %35, ptr noundef %52, ptr noundef %2, ptr noundef %3, ptr noundef %4)
  br i1 %.not, label %54, label %lean_dec.exit

54:                                               ; preds = %lean_dec.exit21
  %55 = load i32, ptr %35, align 4, !tbaa !8
  %56 = icmp sgt i32 %55, 1
  br i1 %56, label %57, label %59, !prof !11

57:                                               ; preds = %54
  %58 = add nsw i32 %55, -1
  store i32 %58, ptr %35, align 4, !tbaa !8
  br label %lean_dec.exit

59:                                               ; preds = %54
  %.not.i25 = icmp eq i32 %55, 0
  br i1 %.not.i25, label %lean_dec.exit, label %60

60:                                               ; preds = %59
  tail call void @lean_dec_ref_cold(ptr noundef nonnull %35) #3
  br label %lean_dec.exit

lean_dec.exit:                                    ; preds = %lean_dec.exit21, %57, %59, %60, %lean_alloc_ctor.exit
  %.0 = phi ptr [ %27, %lean_alloc_ctor.exit ], [ %53, %60 ], [ %53, %59 ], [ %53, %57 ], [ %53, %lean_dec.exit21 ]
  ret ptr %.0
}